; Function Attrs: mustprogress nofree norecurse nosync nounwind willreturn memory(read, inaccessiblemem: none) uwtable
define internal noundef zeroext i1 @"_ZNSt17_Function_handlerIFbRKN4llvm13LegalityQueryEEZNS0_20AArch64LegalizerInfoC1ERKNS0_16AArch64SubtargetEE4$_10E9_M_invokeERKSt9_Any_dataS3_"(ptr nocapture nonnull readnone align 8 %0, ptr nocapture noundef nonnull readonly align 8 dereferenceable(40) %1) #11 align 2 {
  %3 = getelementptr inbounds i8, ptr %1, i64 8
  %.val = load ptr, ptr %3, align 8
  %.val.val = load i64, ptr %.val, align 8
  %4 = and i64 %.val.val, 2
  %.not.i.i.i.i = icmp eq i64 %4, 0
  br i1 %.not.i.i.i.i, label %"_ZSt10__invoke_rIbRZN4llvm20AArch64LegalizerInfoC1ERKNS0_16AArch64SubtargetEE4$_10JRKNS0_13LegalityQueryEEENSt9enable_ifIX16is_invocable_r_vIT_T0_DpT1_EESB_E4typeEOSC_DpOSD_.exit", label %_ZNK4llvm3LLT15isPointerVectorEv.exit.i.i.i

_ZNK4llvm3LLT15isPointerVectorEv.exit.i.i.i:      ; preds = %2
  %5 = and i64 %.val.val, -7
  %spec.select.i.i.i.i.i.i = icmp ne i64 %5, 0
  %6 = and i64 %.val.val, 4
  %7 = icmp ne i64 %6, 0
  %8 = and i1 %spec.select.i.i.i.i.i.i, %7
  br i1 %8, label %9, label %"_ZSt10__invoke_rIbRZN4llvm20AArch64LegalizerInfoC1ERKNS0_16AArch64SubtargetEE4$_10JRKNS0_13LegalityQueryEEENSt9enable_ifIX16is_invocable_r_vIT_T0_DpT1_EESB_E4typeEOSC_DpOSD_.exit"

9:                                                ; preds = %_ZNK4llvm3LLT15isPointerVectorEv.exit.i.i.i
  %10 = and i64 %.val.val, 576460717943685120
  %11 = icmp eq i64 %10, 0
  br label %"_ZSt10__invoke_rIbRZN4llvm20AArch64LegalizerInfoC1ERKNS0_16AArch64SubtargetEE4$_10JRKNS0_13LegalityQueryEEENSt9enable_ifIX16is_invocable_r_vIT_T0_DpT1_EESB_E4typeEOSC_DpOSD_.exit"

"_ZSt10__invoke_rIbRZN4llvm20AArch64LegalizerInfoC1ERKNS0_16AArch64SubtargetEE4$_10JRKNS0_13LegalityQueryEEENSt9enable_ifIX16is_invocable_r_vIT_T0_DpT1_EESB_E4typeEOSC_DpOSD_.exit": ; preds = %2, %_ZNK4llvm3LLT15isPointerVectorEv.exit.i.i.i, %9
  %12 = phi i1 [ false, %_ZNK4llvm3LLT15isPointerVectorEv.exit.i.i.i ], [ %11, %9 ], [ false, %2 ]
  ret i1 %12
}